target datalayout = "e-m:e-p270:32:32-p271:32:32-p272:64:64-i64:64-i128:128-f80:128-n8:16:32:64-S128"
target triple = "x86_64-pc-linux-gnu"

%"class.std::unique_ptr" = type { %"struct.std::__uniq_ptr_data" }
%"struct.std::__uniq_ptr_data" = type { %"class.std::__uniq_ptr_impl" }
%"class.std::__uniq_ptr_impl" = type { %"class.std::tuple" }
%"class.std::tuple" = type { %"struct.std::_Tuple_impl" }
%"struct.std::_Tuple_impl" = type { %"struct.std::_Head_base.1" }
%"struct.std::_Head_base.1" = type { ptr }

; Function Attrs: mustprogress nounwind uwtable
define linkonce_odr hidden void @_ZNSt10_Head_baseILm1ESt14default_deleteIN4LIEF3ELF11X86FeaturesEELb1EEC2Ev(ptr noundef nonnull align 1 dereferenceable(1) %0) unnamed_addr #0 comdat align 2 {
  %2 = alloca ptr, align 8
  store ptr %0, ptr %2, align 8, !tbaa !137
  ret void
}

; Function Attrs: mustprogress nounwind uwtable
define linkonce_odr hidden void @_ZNSt10_Head_baseILm0EPN4LIEF3ELF11X86FeaturesELb0EEC2Ev(ptr noundef nonnull align 8 dereferenceable(8) %0) unnamed_addr #0 comdat align 2 {
  %2 = alloca ptr, align 8
  store ptr %0, ptr %2, align 8, !tbaa !133
  %3 = load ptr, ptr %2, align 8
  %4 = getelementptr inbounds nuw %"struct.std::_Head_base.1", ptr %3, i32 0, i32 0
  store ptr null, ptr %4, align 8, !tbaa !135
  ret void
}

; Function Attrs: mustprogress nounwind uwtable
define linkonce_odr hidden void @_ZNSt11_Tuple_implILm1EJSt14default_deleteIN4LIEF3ELF11X86FeaturesEEEEC2Ev(ptr noundef nonnull align 1 dereferenceable(1) %0) unnamed_addr #0 comdat align 2 {
  %2 = alloca ptr, align 8
  store ptr %0, ptr %2, align 8, !tbaa !131
  %3 = load ptr, ptr %2, align 8
  call void @_ZNSt10_Head_baseILm1ESt14default_deleteIN4LIEF3ELF11X86FeaturesEELb1EEC2Ev(ptr noundef nonnull align 1 dereferenceable(1) %3)
  ret void
}

; Function Attrs: mustprogress nounwind uwtable
define linkonce_odr hidden void @_ZNSt11_Tuple_implILm0EJPN4LIEF3ELF11X86FeaturesESt14default_deleteIS2_EEEC2Ev(ptr noundef nonnull align 8 dereferenceable(8) %0) unnamed_addr #0 comdat align 2 {
  %2 = alloca ptr, align 8
  store ptr %0, ptr %2, align 8, !tbaa !129
  %3 = load ptr, ptr %2, align 8
  call void @_ZNSt11_Tuple_implILm1EJSt14default_deleteIN4LIEF3ELF11X86FeaturesEEEEC2Ev(ptr noundef nonnull align 1 dereferenceable(1) %3)
  call void @_ZNSt10_Head_baseILm0EPN4LIEF3ELF11X86FeaturesELb0EEC2Ev(ptr noundef nonnull align 8 dereferenceable(8) %3)
  ret void
}

; Function Attrs: mustprogress nounwind uwtable
define linkonce_odr hidden void @_ZNSt5tupleIJPN4LIEF3ELF11X86FeaturesESt14default_deleteIS2_EEEC2ILb1ETnNSt9enable_ifIXclsr17_TupleConstraintsIXT_ES3_S5_EE37__is_implicitly_default_constructibleEEbE4typeELb1EEEv(ptr noundef nonnull align 8 dereferenceable(8) %0) unnamed_addr #0 comdat align 2 {
  %2 = alloca ptr, align 8
  store ptr %0, ptr %2, align 8, !tbaa !127
  %3 = load ptr, ptr %2, align 8
  call void @_ZNSt11_Tuple_implILm0EJPN4LIEF3ELF11X86FeaturesESt14default_deleteIS2_EEEC2Ev(ptr noundef nonnull align 8 dereferenceable(8) %3)
  ret void
}

; Function Attrs: mustprogress nounwind uwtable
define linkonce_odr hidden void @_ZNSt15__uniq_ptr_implIN4LIEF3ELF11X86FeaturesESt14default_deleteIS2_EEC2Ev(ptr noundef nonnull align 8 dereferenceable(8) %0) unnamed_addr #0 comdat align 2 {
  %2 = alloca ptr, align 8
  store ptr %0, ptr %2, align 8, !tbaa !125
  %3 = load ptr, ptr %2, align 8
  %4 = getelementptr inbounds nuw %"class.std::__uniq_ptr_impl", ptr %3, i32 0, i32 0
  call void @_ZNSt5tupleIJPN4LIEF3ELF11X86FeaturesESt14default_deleteIS2_EEEC2ILb1ETnNSt9enable_ifIXclsr17_TupleConstraintsIXT_ES3_S5_EE37__is_implicitly_default_constructibleEEbE4typeELb1EEEv(ptr noundef nonnull align 8 dereferenceable(8) %4) #16
  ret void
}

; Function Attrs: inlinehint mustprogress nounwind uwtable
define linkonce_odr hidden void @_ZNSt15__uniq_ptr_dataIN4LIEF3ELF11X86FeaturesESt14default_deleteIS2_ELb1ELb1EEC2Ev(ptr noundef nonnull align 8 dereferenceable(8) %0) unnamed_addr #1 comdat align 2 {
  %2 = alloca ptr, align 8
  store ptr %0, ptr %2, align 8, !tbaa !123
  %3 = load ptr, ptr %2, align 8
  call void @_ZNSt15__uniq_ptr_implIN4LIEF3ELF11X86FeaturesESt14default_deleteIS2_EEC2Ev(ptr noundef nonnull align 8 dereferenceable(8) %3) #16
  ret void
}

; Function Attrs: mustprogress nounwind uwtable
define linkonce_odr hidden void @_ZNSt10unique_ptrIN4LIEF3ELF11X86FeaturesESt14default_deleteIS2_EEC2IS4_vEEDn(ptr noundef nonnull align 8 dereferenceable(8) %0, ptr %1) unnamed_addr #0 comdat align 2 {
  %3 = alloca ptr, align 8
  %4 = alloca ptr, align 8
  store ptr %0, ptr %3, align 8, !tbaa !17
  store ptr %1, ptr %4, align 8, !tbaa !19
  %5 = load ptr, ptr %3, align 8
  %6 = getelementptr inbounds nuw %"class.std::unique_ptr", ptr %5, i32 0, i32 0
  call void @llvm.memset.p0.i64(ptr align 8 %6, i8 0, i64 8, i1 false)
  call void @_ZNSt15__uniq_ptr_dataIN4LIEF3ELF11X86FeaturesESt14default_deleteIS2_ELb1ELb1EEC2Ev(ptr noundef nonnull align 8 dereferenceable(8) %6) #16
  ret void
}

; Function Attrs: mustprogress nounwind uwtable
define void @_ZN4LIEF3ELF11X86Features6createEjRNS_12BinaryStreamE(ptr dead_on_unwind noalias writable sret(%"class.std::unique_ptr") align 8 %0, i32 noundef %1, ptr noundef nonnull align 8 dereferenceable(24) %2) #0 align 2 {
  %4 = alloca ptr, align 8
  %5 = alloca i32, align 4
  %6 = alloca ptr, align 8
  store ptr %0, ptr %4, align 8
  store i32 %1, ptr %5, align 4, !tbaa !3
  store ptr %2, ptr %6, align 8, !tbaa !7
  %7 = load i32, ptr %5, align 4, !tbaa !3
  switch i32 %7, label %14 [
    i32 -1073741822, label %8
    i32 -1073676287, label %10
    i32 -1073709055, label %12
  ]

8:                                                ; preds = %3
  %9 = load ptr, ptr %6, align 8, !tbaa !7
  call void @_ZN4LIEF3ELF11X86Features12create_feat1ENS1_4FLAGERNS_12BinaryStreamE(ptr dead_on_unwind writable sret(%"class.std::unique_ptr") align 8 %0, i32 noundef 0, ptr noundef nonnull align 8 dereferenceable(24) %9)
  br label %15

10:                                               ; preds = %3
  %11 = load ptr, ptr %6, align 8, !tbaa !7
  call void @_ZN4LIEF3ELF11X86Features12create_feat2ENS1_4FLAGERNS_12BinaryStreamE(ptr dead_on_unwind writable sret(%"class.std::unique_ptr") align 8 %0, i32 noundef 1, ptr noundef nonnull align 8 dereferenceable(24) %11)
  br label %15

12:                                               ; preds = %3
  %13 = load ptr, ptr %6, align 8, !tbaa !7
  call void @_ZN4LIEF3ELF11X86Features12create_feat2ENS1_4FLAGERNS_12BinaryStreamE(ptr dead_on_unwind writable sret(%"class.std::unique_ptr") align 8 %0, i32 noundef 2, ptr noundef nonnull align 8 dereferenceable(24) %13)
  br label %15

14:                                               ; preds = %3
  call void @_ZNSt10unique_ptrIN4LIEF3ELF11X86FeaturesESt14default_deleteIS2_EEC2IS4_vEEDn(ptr noundef nonnull align 8 dereferenceable(8) %0, ptr null) #16
  br label %15

15:                                               ; preds = %14, %12, %10, %8
  ret void
}