; Function Attrs: mustprogress nounwind uwtable
define void @_ZN4LIEF3ELF11X86Features6createEjRNS_12BinaryStreamE(ptr dead_on_unwind noalias writable sret(%"class.std::unique_ptr") align 8 %0, i32 noundef %1, ptr noundef nonnull align 8 dereferenceable(24) %2) local_unnamed_addr #0 align 2 {
  switch i32 %1, label %7 [
    i32 -1073741822, label %4
    i32 -1073676287, label %5
    i32 -1073709055, label %6
  ]

4:                                                ; preds = %3
  tail call void @_ZN4LIEF3ELF11X86Features12create_feat1ENS1_4FLAGERNS_12BinaryStreamE(ptr dead_on_unwind writable sret(%"class.std::unique_ptr") align 8 %0, i32 noundef 0, ptr noundef nonnull align 8 dereferenceable(24) %2)
  br label %8

5:                                                ; preds = %3
  tail call void @_ZN4LIEF3ELF11X86Features12create_feat2ENS1_4FLAGERNS_12BinaryStreamE(ptr dead_on_unwind writable sret(%"class.std::unique_ptr") align 8 %0, i32 noundef 1, ptr noundef nonnull align 8 dereferenceable(24) %2)
  br label %8

6:                                                ; preds = %3
  tail call void @_ZN4LIEF3ELF11X86Features12create_feat2ENS1_4FLAGERNS_12BinaryStreamE(ptr dead_on_unwind writable sret(%"class.std::unique_ptr") align 8 %0, i32 noundef 2, ptr noundef nonnull align 8 dereferenceable(24) %2)
  br label %8

7:                                                ; preds = %3
  store ptr null, ptr %0, align 8, !tbaa !3
  br label %8

8:                                                ; preds = %7, %6, %5, %4
  ret void
}